target datalayout = "e-m:e-p270:32:32-p271:32:32-p272:64:64-i64:64-i128:128-f80:128-n8:16:32:64-S128"
target triple = "x86_64-pc-linux-gnu"

%struct.Abc_Obj_t_ = type { ptr, ptr, i32, i32, %struct.Vec_Int_t_, %struct.Vec_Int_t_, %union.anon, %union.anon.0 }
%struct.Vec_Int_t_ = type { i32, i32, ptr }
%union.anon = type { ptr }
%union.anon.0 = type { ptr }
%struct.Abc_Ntk_t_ = type { i32, i32, ptr, ptr, ptr, ptr, ptr, ptr, ptr, ptr, ptr, ptr, ptr, [11 x i32], i32, i32, i32, i32, ptr, i32, ptr, ptr, i32, i32, i32, double, i32, %struct.Vec_Int_t_, ptr, ptr, ptr, ptr, ptr, float, i32, ptr, ptr, ptr, ptr, ptr, ptr, ptr, ptr, ptr, ptr, ptr, ptr, ptr, ptr, ptr, ptr, ptr, ptr, ptr, ptr, ptr, ptr }
%struct.Vec_Ptr_t_ = type { i32, i32, ptr }

; Function Attrs: inlinehint nounwind uwtable
define internal void @Vec_IntGrow(ptr noundef %0, i32 noundef %1) #2 {
  %3 = alloca ptr, align 8
  %4 = alloca i32, align 4
  store ptr %0, ptr %3, align 8, !tbaa !98
  store i32 %1, ptr %4, align 4, !tbaa !12
  %5 = load ptr, ptr %3, align 8, !tbaa !98
  %6 = getelementptr inbounds nuw %struct.Vec_Int_t_, ptr %5, i32 0, i32 0
  %7 = load i32, ptr %6, align 8, !tbaa !122
  %8 = load i32, ptr %4, align 4, !tbaa !12
  %9 = icmp sge i32 %7, %8
  br i1 %9, label %10, label %11

10:                                               ; preds = %2
  br label %36

11:                                               ; preds = %2
  %12 = load ptr, ptr %3, align 8, !tbaa !98
  %13 = getelementptr inbounds nuw %struct.Vec_Int_t_, ptr %12, i32 0, i32 2
  %14 = load ptr, ptr %13, align 8, !tbaa !99
  %15 = icmp ne ptr %14, null
  br i1 %15, label %16, label %24

16:                                               ; preds = %11
  %17 = load ptr, ptr %3, align 8, !tbaa !98
  %18 = getelementptr inbounds nuw %struct.Vec_Int_t_, ptr %17, i32 0, i32 2
  %19 = load ptr, ptr %18, align 8, !tbaa !99
  %20 = load i32, ptr %4, align 4, !tbaa !12
  %21 = sext i32 %20 to i64
  %22 = mul i64 4, %21
  %23 = call ptr @realloc(ptr noundef %19, i64 noundef %22) #10
  br label %29

24:                                               ; preds = %11
  %25 = load i32, ptr %4, align 4, !tbaa !12
  %26 = sext i32 %25 to i64
  %27 = mul i64 4, %26
  %28 = call noalias ptr @malloc(i64 noundef %27) #9
  br label %29

29:                                               ; preds = %24, %16
  %30 = phi ptr [ %23, %16 ], [ %28, %24 ]
  %31 = load ptr, ptr %3, align 8, !tbaa !98
  %32 = getelementptr inbounds nuw %struct.Vec_Int_t_, ptr %31, i32 0, i32 2
  store ptr %30, ptr %32, align 8, !tbaa !99
  %33 = load i32, ptr %4, align 4, !tbaa !12
  %34 = load ptr, ptr %3, align 8, !tbaa !98
  %35 = getelementptr inbounds nuw %struct.Vec_Int_t_, ptr %34, i32 0, i32 0
  store i32 %33, ptr %35, align 8, !tbaa !122
  br label %36

36:                                               ; preds = %29, %10
  ret void
}

; Function Attrs: inlinehint nounwind uwtable
define internal i32 @Vec_PtrSize(ptr noundef %0) #2 {
  %2 = alloca ptr, align 8
  store ptr %0, ptr %2, align 8, !tbaa !50
  %3 = load ptr, ptr %2, align 8, !tbaa !50
  %4 = getelementptr inbounds nuw %struct.Vec_Ptr_t_, ptr %3, i32 0, i32 1
  %5 = load i32, ptr %4, align 4, !tbaa !64
  ret i32 %5
}

; Function Attrs: inlinehint nounwind uwtable
define internal void @Vec_IntFill(ptr noundef %0, i32 noundef %1, i32 noundef %2) #2 {
  %4 = alloca ptr, align 8
  %5 = alloca i32, align 4
  %6 = alloca i32, align 4
  %7 = alloca i32, align 4
  store ptr %0, ptr %4, align 8, !tbaa !98
  store i32 %1, ptr %5, align 4, !tbaa !12
  store i32 %2, ptr %6, align 4, !tbaa !12
  call void @llvm.lifetime.start.p0(i64 4, ptr %7) #8
  %8 = load ptr, ptr %4, align 8, !tbaa !98
  %9 = load i32, ptr %5, align 4, !tbaa !12
  call void @Vec_IntGrow(ptr noundef %8, i32 noundef %9)
  store i32 0, ptr %7, align 4, !tbaa !12
  br label %10

10:                                               ; preds = %22, %3
  %11 = load i32, ptr %7, align 4, !tbaa !12
  %12 = load i32, ptr %5, align 4, !tbaa !12
  %13 = icmp slt i32 %11, %12
  br i1 %13, label %14, label %25

14:                                               ; preds = %10
  %15 = load i32, ptr %6, align 4, !tbaa !12
  %16 = load ptr, ptr %4, align 8, !tbaa !98
  %17 = getelementptr inbounds nuw %struct.Vec_Int_t_, ptr %16, i32 0, i32 2
  %18 = load ptr, ptr %17, align 8, !tbaa !99
  %19 = load i32, ptr %7, align 4, !tbaa !12
  %20 = sext i32 %19 to i64
  %21 = getelementptr inbounds i32, ptr %18, i64 %20
  store i32 %15, ptr %21, align 4, !tbaa !12
  br label %22

22:                                               ; preds = %14
  %23 = load i32, ptr %7, align 4, !tbaa !12
  %24 = add nsw i32 %23, 1
  store i32 %24, ptr %7, align 4, !tbaa !12
  br label %10, !llvm.loop !124

25:                                               ; preds = %10
  %26 = load i32, ptr %5, align 4, !tbaa !12
  %27 = load ptr, ptr %4, align 8, !tbaa !98
  %28 = getelementptr inbounds nuw %struct.Vec_Int_t_, ptr %27, i32 0, i32 1
  store i32 %26, ptr %28, align 4, !tbaa !108
  call void @llvm.lifetime.end.p0(i64 4, ptr %7) #8
  ret void
}

; Function Attrs: inlinehint nounwind uwtable
define internal i32 @Abc_NtkObjNumMax(ptr noundef %0) #2 {
  %2 = alloca ptr, align 8
  store ptr %0, ptr %2, align 8, !tbaa !44
  %3 = load ptr, ptr %2, align 8, !tbaa !44
  %4 = getelementptr inbounds nuw %struct.Abc_Ntk_t_, ptr %3, i32 0, i32 5
  %5 = load ptr, ptr %4, align 8, !tbaa !26
  %6 = call i32 @Vec_PtrSize(ptr noundef %5)
  ret i32 %6
}

; Function Attrs: inlinehint nounwind uwtable
define internal void @Abc_NtkIncrementTravId(ptr noundef %0) #2 {
  %2 = alloca ptr, align 8
  store ptr %0, ptr %2, align 8, !tbaa !44
  %3 = load ptr, ptr %2, align 8, !tbaa !44
  %4 = getelementptr inbounds nuw %struct.Abc_Ntk_t_, ptr %3, i32 0, i32 27
  %5 = getelementptr inbounds nuw %struct.Vec_Int_t_, ptr %4, i32 0, i32 2
  %6 = load ptr, ptr %5, align 8, !tbaa !70
  %7 = icmp ne ptr %6, null
  br i1 %7, label %14, label %8

8:                                                ; preds = %1
  %9 = load ptr, ptr %2, align 8, !tbaa !44
  %10 = getelementptr inbounds nuw %struct.Abc_Ntk_t_, ptr %9, i32 0, i32 27
  %11 = load ptr, ptr %2, align 8, !tbaa !44
  %12 = call i32 @Abc_NtkObjNumMax(ptr noundef %11)
  %13 = add nsw i32 %12, 500
  call void @Vec_IntFill(ptr noundef %10, i32 noundef %13, i32 noundef 0)
  br label %14

14:                                               ; preds = %8, %1
  %15 = load ptr, ptr %2, align 8, !tbaa !44
  %16 = getelementptr inbounds nuw %struct.Abc_Ntk_t_, ptr %15, i32 0, i32 26
  %17 = load i32, ptr %16, align 8, !tbaa !69
  %18 = add nsw i32 %17, 1
  store i32 %18, ptr %16, align 8, !tbaa !69
  ret void
}

; Function Attrs: nounwind uwtable
define i32 @Abc_AigCheckTfi(ptr noundef %0, ptr noundef %1) #0 {
  %3 = alloca ptr, align 8
  %4 = alloca ptr, align 8
  store ptr %0, ptr %3, align 8, !tbaa !3
  store ptr %1, ptr %4, align 8, !tbaa !3
  %5 = load ptr, ptr %3, align 8, !tbaa !3
  %6 = getelementptr inbounds nuw %struct.Abc_Obj_t_, ptr %5, i32 0, i32 0
  %7 = load ptr, ptr %6, align 8, !tbaa !25
  call void @Abc_NtkIncrementTravId(ptr noundef %7)
  %8 = load ptr, ptr %3, align 8, !tbaa !3
  %9 = load ptr, ptr %4, align 8, !tbaa !3
  %10 = call i32 @Abc_AigCheckTfi_rec(ptr noundef %8, ptr noundef %9)
  ret i32 %10
}