; Function Attrs: nounwind uwtable
define range(i32 0, 2) i32 @Abc_AigCheckTfi(ptr noundef %0, ptr noundef %1) local_unnamed_addr #2 {
  %3 = load ptr, ptr %0, align 8, !tbaa !13
  %4 = getelementptr inbounds nuw i8, ptr %3, i64 232
  %5 = load ptr, ptr %4, align 8, !tbaa !63
  %.not.i = icmp eq ptr %5, null
  br i1 %.not.i, label %6, label %Abc_NtkIncrementTravId.exit

6:                                                ; preds = %2
  %7 = getelementptr inbounds nuw i8, ptr %3, i64 224
  %8 = getelementptr i8, ptr %3, i64 32
  %.val.i = load ptr, ptr %8, align 8, !tbaa !15
  %9 = getelementptr i8, ptr %.val.i, i64 4
  %.val.val.i = load i32, ptr %9, align 4, !tbaa !42
  %10 = add nsw i32 %.val.val.i, 500
  %11 = load i32, ptr %7, align 8, !tbaa !60
  %.not.i.i.i = icmp slt i32 %11, %10
  br i1 %.not.i.i.i, label %12, label %Vec_IntGrow.exit.i.i

12:                                               ; preds = %6
  %13 = sext i32 %10 to i64
  %14 = shl nsw i64 %13, 2
  %15 = tail call noalias ptr @malloc(i64 noundef %14) #16
  store ptr %15, ptr %4, align 8, !tbaa !61
  store i32 %10, ptr %7, align 8, !tbaa !60
  br label %Vec_IntGrow.exit.i.i

Vec_IntGrow.exit.i.i:                             ; preds = %12, %6
  %16 = phi ptr [ %15, %12 ], [ null, %6 ]
  %17 = icmp sgt i32 %.val.val.i, -500
  br i1 %17, label %.lr.ph.i.i, label %Vec_IntFill.exit.i

.lr.ph.i.i:                                       ; preds = %Vec_IntGrow.exit.i.i
  %18 = zext nneg i32 %10 to i64
  %19 = shl nuw nsw i64 %18, 2
  tail call void @llvm.memset.p0.i64(ptr align 4 %16, i8 0, i64 %19, i1 false), !tbaa !31
  br label %Vec_IntFill.exit.i

Vec_IntFill.exit.i:                               ; preds = %.lr.ph.i.i, %Vec_IntGrow.exit.i.i
  %20 = getelementptr inbounds nuw i8, ptr %3, i64 228
  store i32 %10, ptr %20, align 4, !tbaa !59
  br label %Abc_NtkIncrementTravId.exit

Abc_NtkIncrementTravId.exit:                      ; preds = %2, %Vec_IntFill.exit.i
  %21 = getelementptr inbounds nuw i8, ptr %3, i64 216
  %22 = load i32, ptr %21, align 8, !tbaa !58
  %23 = add nsw i32 %22, 1
  store i32 %23, ptr %21, align 8, !tbaa !58
  %24 = tail call i32 @Abc_AigCheckTfi_rec(ptr noundef nonnull %0, ptr noundef %1)
  ret i32 %24
}